; Function Attrs: mustprogress nofree norecurse nosync nounwind willreturn memory(argmem: readwrite) uwtable
define void @_ZN32pxrInternal_v0_24__pxrReserved__ngERKNS_10GfMatrix3fE(ptr dead_on_unwind noalias nocapture writable writeonly sret(%"class.pxrInternal_v0_24__pxrReserved__::GfMatrix3f") align 4 %0, ptr nocapture noundef nonnull readonly align 4 dereferenceable(36) %1) local_unnamed_addr #2 {
  %3 = load float, ptr %1, align 4
  %4 = fneg float %3
  %5 = getelementptr inbounds i8, ptr %1, i64 4
  %6 = load float, ptr %5, align 4
  %7 = fneg float %6
  %8 = getelementptr inbounds i8, ptr %1, i64 8
  %9 = load float, ptr %8, align 4
  %10 = fneg float %9
  %11 = getelementptr inbounds i8, ptr %1, i64 12
  %12 = load float, ptr %11, align 4
  %13 = fneg float %12
  %14 = getelementptr inbounds i8, ptr %1, i64 16
  %15 = load float, ptr %14, align 4
  %16 = fneg float %15
  %17 = getelementptr inbounds i8, ptr %1, i64 20
  %18 = load float, ptr %17, align 4
  %19 = fneg float %18
  %20 = getelementptr inbounds i8, ptr %1, i64 24
  %21 = load float, ptr %20, align 4
  %22 = fneg float %21
  %23 = getelementptr inbounds i8, ptr %1, i64 28
  %24 = load float, ptr %23, align 4
  %25 = fneg float %24
  %26 = getelementptr inbounds i8, ptr %1, i64 32
  %27 = load float, ptr %26, align 4
  %28 = fneg float %27
  store float %4, ptr %0, align 4
  %29 = getelementptr inbounds i8, ptr %0, i64 4
  store float %7, ptr %29, align 4
  %30 = getelementptr inbounds i8, ptr %0, i64 8
  store float %10, ptr %30, align 4
  %31 = getelementptr inbounds i8, ptr %0, i64 12
  store float %13, ptr %31, align 4
  %32 = getelementptr inbounds i8, ptr %0, i64 16
  store float %16, ptr %32, align 4
  %33 = getelementptr inbounds i8, ptr %0, i64 20
  store float %19, ptr %33, align 4
  %34 = getelementptr inbounds i8, ptr %0, i64 24
  store float %22, ptr %34, align 4
  %35 = getelementptr inbounds i8, ptr %0, i64 28
  store float %25, ptr %35, align 4
  %36 = getelementptr inbounds i8, ptr %0, i64 32
  store float %28, ptr %36, align 4
  ret void
}